; Function Attrs: mustprogress nounwind uwtable
define hidden void @_ZN9StubQueueC2EP13StubInterfaceiP5MutexPKc(ptr nocapture noundef nonnull align 8 dereferenceable(48) %0, ptr noundef %1, i32 noundef %2, ptr noundef %3, ptr noundef %4) unnamed_addr #0 align 2 {
  %6 = getelementptr inbounds i8, ptr %0, i64 40
  store ptr %3, ptr %6, align 8
  %7 = add i32 %2, 15
  %8 = and i32 %7, -16
  %9 = tail call noundef ptr @_ZN10BufferBlob6createEPKcj(ptr noundef %4, i32 noundef %8) #6
  %10 = icmp eq ptr %9, null
  br i1 %10, label %11, label %13

11:                                               ; preds = %5
  %12 = sext i32 %8 to i64
  tail call void (ptr, i32, i64, i32, ptr, ...) @_Z23report_vm_out_of_memoryPKcim11VMErrorTypeS0_z(ptr noundef nonnull @.str, i32 noundef 73, i64 noundef %12, i32 noundef -536870911, ptr noundef nonnull @.str.4, ptr noundef %4) #7
  unreachable

13:                                               ; preds = %5
  store ptr %1, ptr %0, align 8
  %14 = getelementptr inbounds i8, ptr %9, i64 32
  %15 = load i32, ptr %14, align 8
  %16 = sext i32 %15 to i64
  %17 = getelementptr inbounds i8, ptr %9, i64 %16
  %18 = load ptr, ptr %1, align 8
  %19 = getelementptr inbounds i8, ptr %18, i64 24
  %20 = load ptr, ptr %19, align 8
  %21 = tail call noundef i32 %20(ptr noundef nonnull align 8 dereferenceable(8) %1) #6
  %22 = ptrtoint ptr %17 to i64
  %23 = add nsw i32 %21, -1
  %24 = sext i32 %23 to i64
  %25 = add i64 %24, %22
  %26 = sub i32 0, %21
  %27 = sext i32 %26 to i64
  %28 = and i64 %25, %27
  %29 = inttoptr i64 %28 to ptr
  %30 = getelementptr inbounds i8, ptr %9, i64 40
  %31 = load i32, ptr %30, align 8
  %32 = sext i32 %31 to i64
  %33 = getelementptr inbounds i8, ptr %9, i64 %32
  %34 = load ptr, ptr %0, align 8
  %35 = load ptr, ptr %34, align 8
  %36 = getelementptr inbounds i8, ptr %35, i64 24
  %37 = load ptr, ptr %36, align 8
  %38 = tail call noundef i32 %37(ptr noundef nonnull align 8 dereferenceable(8) %34) #6
  %39 = ptrtoint ptr %33 to i64
  %40 = sub i32 0, %38
  %41 = zext i32 %40 to i64
  %42 = and i64 %41, %39
  %43 = sub i64 %42, %28
  %44 = trunc i64 %43 to i32
  %45 = getelementptr inbounds i8, ptr %0, i64 16
  store i32 %44, ptr %45, align 8
  %46 = getelementptr inbounds i8, ptr %0, i64 20
  store i32 %44, ptr %46, align 4
  %47 = getelementptr inbounds i8, ptr %0, i64 8
  store ptr %29, ptr %47, align 8
  %48 = getelementptr inbounds i8, ptr %0, i64 24
  store i32 0, ptr %48, align 8
  %49 = getelementptr inbounds i8, ptr %0, i64 28
  store i32 0, ptr %49, align 4
  %50 = getelementptr inbounds i8, ptr %0, i64 32
  store i32 0, ptr %50, align 8
  ret void
}